target datalayout = "e-m:e-p270:32:32-p271:32:32-p272:64:64-i64:64-i128:128-f80:128-n8:16:32:64-S128"
target triple = "x86_64-pc-linux-gnu"

; Function Attrs: mustprogress nounwind uwtable
define linkonce_odr hidden void @_ZN2cv12cpu_baseline15accSqr_general_IfdEEvPKT_PT0_PKhiii(ptr noundef %0, ptr noundef %1, ptr noundef %2, i32 noundef %3, i32 noundef %4, i32 noundef %5) #2 comdat {
  %7 = alloca ptr, align 8
  %8 = alloca ptr, align 8
  %9 = alloca ptr, align 8
  %10 = alloca i32, align 4
  %11 = alloca i32, align 4
  %12 = alloca i32, align 4
  %13 = alloca i32, align 4
  %14 = alloca i32, align 4
  store ptr %0, ptr %7, align 8, !tbaa !8
  store ptr %1, ptr %8, align 8, !tbaa !29
  store ptr %2, ptr %9, align 8, !tbaa !3
  store i32 %3, ptr %10, align 4, !tbaa !10
  store i32 %4, ptr %11, align 4, !tbaa !10
  store i32 %5, ptr %12, align 4, !tbaa !10
  call void @llvm.lifetime.start.p0(i64 4, ptr %13) #4
  %15 = load i32, ptr %12, align 4, !tbaa !10
  store i32 %15, ptr %13, align 4, !tbaa !10
  %16 = load ptr, ptr %9, align 8, !tbaa !3
  %17 = icmp ne ptr %16, null
  br i1 %17, label %49, label %18

18:                                               ; preds = %6
  %19 = load i32, ptr %11, align 4, !tbaa !10
  %20 = load i32, ptr %10, align 4, !tbaa !10
  %21 = mul nsw i32 %20, %19
  store i32 %21, ptr %10, align 4, !tbaa !10
  br label %22

22:                                               ; preds = %45, %18
  %23 = load i32, ptr %13, align 4, !tbaa !10
  %24 = load i32, ptr %10, align 4, !tbaa !10
  %25 = icmp slt i32 %23, %24
  br i1 %25, label %26, label %48

26:                                               ; preds = %22
  %27 = load ptr, ptr %7, align 8, !tbaa !8
  %28 = load i32, ptr %13, align 4, !tbaa !10
  %29 = sext i32 %28 to i64
  %30 = getelementptr inbounds float, ptr %27, i64 %29
  %31 = load float, ptr %30, align 4, !tbaa !13
  %32 = fpext float %31 to double
  %33 = load ptr, ptr %7, align 8, !tbaa !8
  %34 = load i32, ptr %13, align 4, !tbaa !10
  %35 = sext i32 %34 to i64
  %36 = getelementptr inbounds float, ptr %33, i64 %35
  %37 = load float, ptr %36, align 4, !tbaa !13
  %38 = fpext float %37 to double
  %39 = load ptr, ptr %8, align 8, !tbaa !29
  %40 = load i32, ptr %13, align 4, !tbaa !10
  %41 = sext i32 %40 to i64
  %42 = getelementptr inbounds double, ptr %39, i64 %41
  %43 = load double, ptr %42, align 8, !tbaa !31
  %44 = call double @llvm.fmuladd.f64(double %32, double %38, double %43)
  store double %44, ptr %42, align 8, !tbaa !31
  br label %45

45:                                               ; preds = %26
  %46 = load i32, ptr %13, align 4, !tbaa !10
  %47 = add nsw i32 %46, 1
  store i32 %47, ptr %13, align 4, !tbaa !10
  br label %22, !llvm.loop !60

48:                                               ; preds = %22
  br label %115

49:                                               ; preds = %6
  %50 = load i32, ptr %13, align 4, !tbaa !10
  %51 = load i32, ptr %11, align 4, !tbaa !10
  %52 = mul nsw i32 %50, %51
  %53 = load ptr, ptr %7, align 8, !tbaa !8
  %54 = sext i32 %52 to i64
  %55 = getelementptr inbounds float, ptr %53, i64 %54
  store ptr %55, ptr %7, align 8, !tbaa !8
  %56 = load i32, ptr %13, align 4, !tbaa !10
  %57 = load i32, ptr %11, align 4, !tbaa !10
  %58 = mul nsw i32 %56, %57
  %59 = load ptr, ptr %8, align 8, !tbaa !29
  %60 = sext i32 %58 to i64
  %61 = getelementptr inbounds double, ptr %59, i64 %60
  store ptr %61, ptr %8, align 8, !tbaa !29
  br label %62

62:                                               ; preds = %103, %49
  %63 = load i32, ptr %13, align 4, !tbaa !10
  %64 = load i32, ptr %10, align 4, !tbaa !10
  %65 = icmp slt i32 %63, %64
  br i1 %65, label %66, label %114

66:                                               ; preds = %62
  %67 = load ptr, ptr %9, align 8, !tbaa !3
  %68 = load i32, ptr %13, align 4, !tbaa !10
  %69 = sext i32 %68 to i64
  %70 = getelementptr inbounds i8, ptr %67, i64 %69
  %71 = load i8, ptr %70, align 1, !tbaa !12
  %72 = icmp ne i8 %71, 0
  br i1 %72, label %73, label %102

73:                                               ; preds = %66
  call void @llvm.lifetime.start.p0(i64 4, ptr %14) #4
  store i32 0, ptr %14, align 4, !tbaa !10
  br label %74

74:                                               ; preds = %98, %73
  %75 = load i32, ptr %14, align 4, !tbaa !10
  %76 = load i32, ptr %11, align 4, !tbaa !10
  %77 = icmp slt i32 %75, %76
  br i1 %77, label %79, label %78

78:                                               ; preds = %74
  call void @llvm.lifetime.end.p0(i64 4, ptr %14) #4
  br label %101

79:                                               ; preds = %74
  %80 = load ptr, ptr %7, align 8, !tbaa !8
  %81 = load i32, ptr %14, align 4, !tbaa !10
  %82 = sext i32 %81 to i64
  %83 = getelementptr inbounds float, ptr %80, i64 %82
  %84 = load float, ptr %83, align 4, !tbaa !13
  %85 = fpext float %84 to double
  %86 = load ptr, ptr %7, align 8, !tbaa !8
  %87 = load i32, ptr %14, align 4, !tbaa !10
  %88 = sext i32 %87 to i64
  %89 = getelementptr inbounds float, ptr %86, i64 %88
  %90 = load float, ptr %89, align 4, !tbaa !13
  %91 = fpext float %90 to double
  %92 = load ptr, ptr %8, align 8, !tbaa !29
  %93 = load i32, ptr %14, align 4, !tbaa !10
  %94 = sext i32 %93 to i64
  %95 = getelementptr inbounds double, ptr %92, i64 %94
  %96 = load double, ptr %95, align 8, !tbaa !31
  %97 = call double @llvm.fmuladd.f64(double %85, double %91, double %96)
  store double %97, ptr %95, align 8, !tbaa !31
  br label %98

98:                                               ; preds = %79
  %99 = load i32, ptr %14, align 4, !tbaa !10
  %100 = add nsw i32 %99, 1
  store i32 %100, ptr %14, align 4, !tbaa !10
  br label %74, !llvm.loop !61

101:                                              ; preds = %78
  br label %102

102:                                              ; preds = %101, %66
  br label %103

103:                                              ; preds = %102
  %104 = load i32, ptr %13, align 4, !tbaa !10
  %105 = add nsw i32 %104, 1
  store i32 %105, ptr %13, align 4, !tbaa !10
  %106 = load i32, ptr %11, align 4, !tbaa !10
  %107 = load ptr, ptr %7, align 8, !tbaa !8
  %108 = sext i32 %106 to i64
  %109 = getelementptr inbounds float, ptr %107, i64 %108
  store ptr %109, ptr %7, align 8, !tbaa !8
  %110 = load i32, ptr %11, align 4, !tbaa !10
  %111 = load ptr, ptr %8, align 8, !tbaa !29
  %112 = sext i32 %110 to i64
  %113 = getelementptr inbounds double, ptr %111, i64 %112
  store ptr %113, ptr %8, align 8, !tbaa !29
  br label %62, !llvm.loop !62

114:                                              ; preds = %62
  br label %115

115:                                              ; preds = %114, %48
  call void @llvm.lifetime.end.p0(i64 4, ptr %13) #4
  ret void
}

; Function Attrs: mustprogress uwtable
define hidden void @_ZN2cv12cpu_baseline12accSqr_simd_EPKfPdPKhii(ptr noundef %0, ptr noundef %1, ptr noundef %2, i32 noundef %3, i32 noundef %4) #0 {
  %6 = alloca ptr, align 8
  %7 = alloca ptr, align 8
  %8 = alloca ptr, align 8
  %9 = alloca i32, align 4
  %10 = alloca i32, align 4
  %11 = alloca i32, align 4
  store ptr %0, ptr %6, align 8, !tbaa !8
  store ptr %1, ptr %7, align 8, !tbaa !29
  store ptr %2, ptr %8, align 8, !tbaa !3
  store i32 %3, ptr %9, align 4, !tbaa !10
  store i32 %4, ptr %10, align 4, !tbaa !10
  call void @llvm.lifetime.start.p0(i64 4, ptr %11) #4
  store i32 0, ptr %11, align 4, !tbaa !10
  %12 = load ptr, ptr %6, align 8, !tbaa !8
  %13 = load ptr, ptr %7, align 8, !tbaa !29
  %14 = load ptr, ptr %8, align 8, !tbaa !3
  %15 = load i32, ptr %9, align 4, !tbaa !10
  %16 = load i32, ptr %10, align 4, !tbaa !10
  %17 = load i32, ptr %11, align 4, !tbaa !10
  call void @_ZN2cv12cpu_baseline15accSqr_general_IfdEEvPKT_PT0_PKhiii(ptr noundef %12, ptr noundef %13, ptr noundef %14, i32 noundef %15, i32 noundef %16, i32 noundef %17)
  call void @llvm.lifetime.end.p0(i64 4, ptr %11) #4
  ret void
}