; Function Attrs: mustprogress nofree norecurse nosync nounwind memory(argmem: readwrite) uwtable
define hidden void @_ZN2cv12cpu_baseline12accSqr_simd_EPKfPdPKhii(ptr noundef readonly captures(none) %0, ptr noundef captures(none) %1, ptr noundef readonly %2, i32 noundef %3, i32 noundef %4) local_unnamed_addr #0 {
  %.not.i = icmp eq ptr %2, null
  br i1 %.not.i, label %6, label %15

6:                                                ; preds = %5
  %7 = mul nsw i32 %4, %3
  %8 = icmp sgt i32 %7, 0
  br i1 %8, label %.lr.ph.preheader.i, label %_ZN2cv12cpu_baseline15accSqr_general_IfdEEvPKT_PT0_PKhiii.exit

.lr.ph.preheader.i:                               ; preds = %6
  %wide.trip.count60.i = zext nneg i32 %7 to i64
  br label %.lr.ph.i

.lr.ph.i:                                         ; preds = %.lr.ph.i, %.lr.ph.preheader.i
  %indvars.iv57.i = phi i64 [ 0, %.lr.ph.preheader.i ], [ %indvars.iv.next58.i, %.lr.ph.i ]
  %9 = getelementptr inbounds nuw float, ptr %0, i64 %indvars.iv57.i
  %10 = load float, ptr %9, align 4, !tbaa !6
  %11 = fpext float %10 to double
  %12 = getelementptr inbounds nuw double, ptr %1, i64 %indvars.iv57.i
  %13 = load double, ptr %12, align 8, !tbaa !20
  %14 = tail call double @llvm.fmuladd.f64(double %11, double %11, double %13)
  store double %14, ptr %12, align 8, !tbaa !20
  %indvars.iv.next58.i = add nuw nsw i64 %indvars.iv57.i, 1
  %exitcond61.not.i = icmp eq i64 %indvars.iv.next58.i, %wide.trip.count60.i
  br i1 %exitcond61.not.i, label %_ZN2cv12cpu_baseline15accSqr_general_IfdEEvPKT_PT0_PKhiii.exit, label %.lr.ph.i, !llvm.loop !49

15:                                               ; preds = %5
  %16 = icmp sgt i32 %3, 0
  br i1 %16, label %.lr.ph47.i, label %_ZN2cv12cpu_baseline15accSqr_general_IfdEEvPKT_PT0_PKhiii.exit

.lr.ph47.i:                                       ; preds = %15
  %17 = icmp sgt i32 %4, 0
  %18 = sext i32 %4 to i64
  br i1 %17, label %.lr.ph47.split.us.preheader.i, label %_ZN2cv12cpu_baseline15accSqr_general_IfdEEvPKT_PT0_PKhiii.exit

.lr.ph47.split.us.preheader.i:                    ; preds = %.lr.ph47.i
  %wide.trip.count55.i = zext nneg i32 %3 to i64
  %wide.trip.count.i = zext nneg i32 %4 to i64
  br label %.lr.ph47.split.us.i

.lr.ph47.split.us.i:                              ; preds = %..loopexit41_crit_edge.us.i, %.lr.ph47.split.us.preheader.i
  %indvars.iv52.i = phi i64 [ 0, %.lr.ph47.split.us.preheader.i ], [ %indvars.iv.next53.i, %..loopexit41_crit_edge.us.i ]
  %.03745.us.i = phi ptr [ %0, %.lr.ph47.split.us.preheader.i ], [ %27, %..loopexit41_crit_edge.us.i ]
  %.03844.us.i = phi ptr [ %1, %.lr.ph47.split.us.preheader.i ], [ %28, %..loopexit41_crit_edge.us.i ]
  %19 = getelementptr inbounds nuw i8, ptr %2, i64 %indvars.iv52.i
  %20 = load i8, ptr %19, align 1, !tbaa !3
  %.not40.us.i = icmp eq i8 %20, 0
  br i1 %.not40.us.i, label %..loopexit41_crit_edge.us.i, label %.preheader.us.i

.preheader.us.i:                                  ; preds = %.lr.ph47.split.us.i, %.preheader.us.i
  %indvars.iv.i = phi i64 [ %indvars.iv.next.i, %.preheader.us.i ], [ 0, %.lr.ph47.split.us.i ]
  %21 = getelementptr inbounds nuw float, ptr %.03745.us.i, i64 %indvars.iv.i
  %22 = load float, ptr %21, align 4, !tbaa !6
  %23 = fpext float %22 to double
  %24 = getelementptr inbounds nuw double, ptr %.03844.us.i, i64 %indvars.iv.i
  %25 = load double, ptr %24, align 8, !tbaa !20
  %26 = tail call double @llvm.fmuladd.f64(double %23, double %23, double %25)
  store double %26, ptr %24, align 8, !tbaa !20
  %indvars.iv.next.i = add nuw nsw i64 %indvars.iv.i, 1
  %exitcond.not.i = icmp eq i64 %indvars.iv.next.i, %wide.trip.count.i
  br i1 %exitcond.not.i, label %..loopexit41_crit_edge.us.i, label %.preheader.us.i, !llvm.loop !50

..loopexit41_crit_edge.us.i:                      ; preds = %.preheader.us.i, %.lr.ph47.split.us.i
  %indvars.iv.next53.i = add nuw nsw i64 %indvars.iv52.i, 1
  %27 = getelementptr inbounds nuw float, ptr %.03745.us.i, i64 %18
  %28 = getelementptr inbounds nuw double, ptr %.03844.us.i, i64 %18
  %exitcond56.not.i = icmp eq i64 %indvars.iv.next53.i, %wide.trip.count55.i
  br i1 %exitcond56.not.i, label %_ZN2cv12cpu_baseline15accSqr_general_IfdEEvPKT_PT0_PKhiii.exit, label %.lr.ph47.split.us.i, !llvm.loop !51

_ZN2cv12cpu_baseline15accSqr_general_IfdEEvPKT_PT0_PKhiii.exit: ; preds = %..loopexit41_crit_edge.us.i, %.lr.ph.i, %6, %15, %.lr.ph47.i
  ret void
}